target datalayout = "e-m:e-p270:32:32-p271:32:32-p272:64:64-i64:64-i128:128-f80:128-n8:16:32:64-S128"
target triple = "x86_64-pc-linux-gnu"

%struct.ParseState = type { ptr, ptr, i32, i32, ptr, ptr, ptr, ptr, ptr, ptr, i8, ptr, ptr, ptr, ptr, ptr, ptr, i8, ptr, i32, i32, ptr, ptr, i8, i8, ptr, i8, i8, i8, i8, i8, ptr, ptr, ptr, ptr, ptr, ptr }
%struct.ParseNamespaceItem = type { ptr, ptr, i32, ptr, ptr, i8, i8, i8, i8, i32 }
%struct.RangeVar = type { i32, ptr, ptr, ptr, i8, i8, ptr, i32 }
%struct.RTEPermissionInfo = type { i32, i32, i8, i64, i32, ptr, ptr, ptr }

@.str = private unnamed_addr constant [60 x i8] c"relation \22%s\22 cannot be the target of a modifying statement\00", align 1
@.str.1 = private unnamed_addr constant [15 x i8] c"parse_clause.c\00", align 1
@__func__.setTargetTable = private unnamed_addr constant [15 x i8] c"setTargetTable\00", align 1

; Function Attrs: nounwind uwtable
define dso_local i32 @setTargetTable(ptr noundef %0, ptr noundef %1, i1 noundef zeroext %2, i1 noundef zeroext %3, i64 noundef %4) #0 {
  %6 = alloca ptr, align 8
  %7 = alloca ptr, align 8
  %8 = alloca i8, align 1
  %9 = alloca i8, align 1
  %10 = alloca i64, align 8
  %11 = alloca ptr, align 8
  store ptr %0, ptr %6, align 8
  store ptr %1, ptr %7, align 8
  %12 = zext i1 %2 to i8
  store i8 %12, ptr %8, align 1
  %13 = zext i1 %3 to i8
  store i8 %13, ptr %9, align 1
  store i64 %4, ptr %10, align 8
  call void @llvm.lifetime.start.p0(i64 8, ptr %11) #8
  %14 = load ptr, ptr %7, align 8
  %15 = getelementptr inbounds nuw %struct.RangeVar, ptr %14, i32 0, i32 2
  %16 = load ptr, ptr %15, align 8
  %17 = icmp eq ptr %16, null
  br i1 %17, label %18, label %39

18:                                               ; preds = %5
  %19 = load ptr, ptr %6, align 8
  %20 = load ptr, ptr %7, align 8
  %21 = getelementptr inbounds nuw %struct.RangeVar, ptr %20, i32 0, i32 3
  %22 = load ptr, ptr %21, align 8
  %23 = call zeroext i1 @scanNameSpaceForENR(ptr noundef %19, ptr noundef %22)
  br i1 %23, label %24, label %39

24:                                               ; preds = %18
  br label %25

25:                                               ; preds = %24
  br i1 true, label %26, label %28

26:                                               ; preds = %25
  %27 = call zeroext i1 @errstart_cold(i32 noundef 21, ptr noundef null) #9
  br i1 %27, label %30, label %36

28:                                               ; preds = %25
  %29 = call zeroext i1 @errstart(i32 noundef 21, ptr noundef null)
  br i1 %29, label %30, label %36

30:                                               ; preds = %28, %26
  %31 = call i32 @errcode(i32 noundef 1088)
  %32 = load ptr, ptr %7, align 8
  %33 = getelementptr inbounds nuw %struct.RangeVar, ptr %32, i32 0, i32 3
  %34 = load ptr, ptr %33, align 8
  %35 = call i32 (ptr, ...) @errmsg(ptr noundef @.str, ptr noundef %34)
  call void @errfinish(ptr noundef @.str.1, i32 noundef 192, ptr noundef @__func__.setTargetTable)
  br label %36

36:                                               ; preds = %30, %28, %26
  unreachable

37:                                               ; No predecessors!
  br label %38

38:                                               ; preds = %37
  br label %39

39:                                               ; preds = %38, %18, %5
  %40 = load ptr, ptr %6, align 8
  %41 = getelementptr inbounds nuw %struct.ParseState, ptr %40, i32 0, i32 14
  %42 = load ptr, ptr %41, align 8
  %43 = icmp ne ptr %42, null
  br i1 %43, label %44, label %48

44:                                               ; preds = %39
  %45 = load ptr, ptr %6, align 8
  %46 = getelementptr inbounds nuw %struct.ParseState, ptr %45, i32 0, i32 14
  %47 = load ptr, ptr %46, align 8
  call void @table_close(ptr noundef %47, i32 noundef 0)
  br label %48

48:                                               ; preds = %44, %39
  %49 = load ptr, ptr %6, align 8
  %50 = load ptr, ptr %7, align 8
  %51 = call ptr @parserOpenTable(ptr noundef %49, ptr noundef %50, i32 noundef 3)
  %52 = load ptr, ptr %6, align 8
  %53 = getelementptr inbounds nuw %struct.ParseState, ptr %52, i32 0, i32 14
  store ptr %51, ptr %53, align 8
  %54 = load ptr, ptr %6, align 8
  %55 = load ptr, ptr %6, align 8
  %56 = getelementptr inbounds nuw %struct.ParseState, ptr %55, i32 0, i32 14
  %57 = load ptr, ptr %56, align 8
  %58 = load ptr, ptr %7, align 8
  %59 = getelementptr inbounds nuw %struct.RangeVar, ptr %58, i32 0, i32 6
  %60 = load ptr, ptr %59, align 8
  %61 = load i8, ptr %8, align 1, !range !6, !noundef !7
  %62 = trunc i8 %61 to i1
  %63 = call ptr @addRangeTableEntryForRelation(ptr noundef %54, ptr noundef %57, i32 noundef 3, ptr noundef %60, i1 noundef zeroext %62, i1 noundef zeroext false)
  store ptr %63, ptr %11, align 8
  %64 = load ptr, ptr %11, align 8
  %65 = load ptr, ptr %6, align 8
  %66 = getelementptr inbounds nuw %struct.ParseState, ptr %65, i32 0, i32 15
  store ptr %64, ptr %66, align 8
  %67 = load i64, ptr %10, align 8
  %68 = load ptr, ptr %11, align 8
  %69 = getelementptr inbounds nuw %struct.ParseNamespaceItem, ptr %68, i32 0, i32 3
  %70 = load ptr, ptr %69, align 8
  %71 = getelementptr inbounds nuw %struct.RTEPermissionInfo, ptr %70, i32 0, i32 3
  store i64 %67, ptr %71, align 8
  %72 = load i8, ptr %9, align 1, !range !6, !noundef !7
  %73 = trunc i8 %72 to i1
  br i1 %73, label %74, label %77

74:                                               ; preds = %48
  %75 = load ptr, ptr %6, align 8
  %76 = load ptr, ptr %11, align 8
  call void @addNSItemToQuery(ptr noundef %75, ptr noundef %76, i1 noundef zeroext true, i1 noundef zeroext true, i1 noundef zeroext true)
  br label %77

77:                                               ; preds = %74, %48
  %78 = load ptr, ptr %11, align 8
  %79 = getelementptr inbounds nuw %struct.ParseNamespaceItem, ptr %78, i32 0, i32 2
  %80 = load i32, ptr %79, align 8
  call void @llvm.lifetime.end.p0(i64 8, ptr %11) #8
  ret i32 %80
}