; Function Attrs: nounwind uwtable
define dso_local i32 @setTargetTable(ptr noundef %0, ptr noundef %1, i1 noundef zeroext %2, i1 noundef zeroext %3, i64 noundef %4) local_unnamed_addr #0 {
  %6 = getelementptr inbounds nuw i8, ptr %1, i64 16
  %7 = load ptr, ptr %6, align 8
  %8 = icmp eq ptr %7, null
  br i1 %8, label %9, label %18

9:                                                ; preds = %5
  %10 = getelementptr inbounds nuw i8, ptr %1, i64 24
  %11 = load ptr, ptr %10, align 8
  %12 = tail call zeroext i1 @scanNameSpaceForENR(ptr noundef %0, ptr noundef %11) #9
  br i1 %12, label %13, label %18

13:                                               ; preds = %9
  %14 = tail call zeroext i1 @errstart_cold(i32 noundef 21, ptr noundef null) #10
  tail call void @llvm.assume(i1 %14)
  %15 = tail call i32 @errcode(i32 noundef 1088) #9
  %16 = load ptr, ptr %10, align 8
  %17 = tail call i32 (ptr, ...) @errmsg(ptr noundef nonnull @.str, ptr noundef %16) #9
  tail call void @errfinish(ptr noundef nonnull @.str.1, i32 noundef 192, ptr noundef nonnull @__func__.setTargetTable) #9
  unreachable

18:                                               ; preds = %9, %5
  %19 = getelementptr inbounds nuw i8, ptr %0, i64 104
  %20 = load ptr, ptr %19, align 8
  %.not = icmp eq ptr %20, null
  br i1 %.not, label %22, label %21

21:                                               ; preds = %18
  tail call void @table_close(ptr noundef nonnull %20, i32 noundef 0) #9
  br label %22

22:                                               ; preds = %21, %18
  %23 = tail call ptr @parserOpenTable(ptr noundef nonnull %0, ptr noundef nonnull %1, i32 noundef 3) #9
  store ptr %23, ptr %19, align 8
  %24 = getelementptr inbounds nuw i8, ptr %1, i64 40
  %25 = load ptr, ptr %24, align 8
  %26 = tail call ptr @addRangeTableEntryForRelation(ptr noundef nonnull %0, ptr noundef %23, i32 noundef 3, ptr noundef %25, i1 noundef zeroext %2, i1 noundef zeroext false) #9
  %27 = getelementptr inbounds nuw i8, ptr %0, i64 112
  store ptr %26, ptr %27, align 8
  %28 = getelementptr inbounds nuw i8, ptr %26, i64 24
  %29 = load ptr, ptr %28, align 8
  %30 = getelementptr inbounds nuw i8, ptr %29, i64 16
  store i64 %4, ptr %30, align 8
  br i1 %3, label %31, label %32

31:                                               ; preds = %22
  tail call void @addNSItemToQuery(ptr noundef nonnull %0, ptr noundef nonnull %26, i1 noundef zeroext true, i1 noundef zeroext true, i1 noundef zeroext true) #9
  br label %32

32:                                               ; preds = %31, %22
  %33 = getelementptr inbounds nuw i8, ptr %26, i64 16
  %34 = load i32, ptr %33, align 8
  ret i32 %34
}